target datalayout = "e-m:e-p270:32:32-p271:32:32-p272:64:64-i64:64-i128:128-f80:128-n8:16:32:64-S128"
target triple = "x86_64-pc-linux-gnu"

%struct.Curl_cftype = type { ptr, i32, i32, ptr, ptr, ptr, ptr, ptr, ptr, ptr, ptr, ptr, ptr, ptr, ptr, ptr }
%struct.Curl_easy = type { i32, i64, i64, ptr, %struct.Curl_llist_node, %struct.Curl_llist_node, i32, i32, %struct.Curl_message, %struct.easy_pollset, %struct.Names, ptr, ptr, ptr, ptr, %struct.SingleRequest, %struct.UserDefined, ptr, ptr, ptr, %struct.Progress, %struct.UrlState, ptr, %struct.PureInfo, %struct.curl_tlssessioninfo }
%struct.Curl_llist_node = type { ptr, ptr, ptr, ptr }
%struct.Curl_message = type { %struct.Curl_llist_node, %struct.CURLMsg }
%struct.CURLMsg = type { i32, ptr, %union.anon.3 }
%union.anon.3 = type { ptr }
%struct.easy_pollset = type { [5 x i32], i32, [5 x i8] }
%struct.Names = type { ptr, i32 }
%struct.SingleRequest = type <{ i64, i64, i64, i64, %struct.curltime, i32, i32, i32, i32, i64, i32, i32, i8, i8, [2 x i8], i32, ptr, ptr, %struct.bufq, i64, i64, ptr, ptr, %union.anon.4, ptr, i8, i32, [3 x i8] }>
%struct.curltime = type { i64, i32 }
%struct.bufq = type { ptr, ptr, ptr, ptr, i64, i64, i64, i32 }
%union.anon.4 = type { ptr }
%struct.UserDefined = type <{ ptr, ptr, ptr, ptr, ptr, ptr, i64, i64, i64, ptr, ptr, i64, ptr, ptr, ptr, ptr, ptr, ptr, ptr, ptr, ptr, ptr, ptr, ptr, ptr, ptr, ptr, ptr, ptr, ptr, ptr, ptr, ptr, ptr, ptr, i64, i64, i64, i64, i64, i64, i64, i64, i64, ptr, ptr, %struct.curl_mimepart, ptr, ptr, ptr, i64, %struct.ssl_config_data, %struct.ssl_config_data, ptr, i16, i8, i8, %struct.ssl_general_config, i32, i32, i32, [4 x i8], ptr, ptr, i64, i32, i8, i8, i8, i8, ptr, ptr, ptr, i32, [4 x i8], [74 x ptr], [8 x ptr], i32, i32, i32, [4 x i8], ptr, i32, [4 x i8], ptr, ptr, ptr, ptr, ptr, i32, i32, i32, i32, i32, i32, i32, i32, i64, ptr, ptr, i64, ptr, i64, ptr, ptr, ptr, ptr, i32, i16, i16, i16, i8, i8, i8, i8, i8, i8, i8, i8, i64, [6 x i8] }>
%struct.curl_mimepart = type { ptr, ptr, i32, i32, ptr, ptr, ptr, ptr, ptr, ptr, ptr, ptr, ptr, ptr, ptr, i64, %struct.mime_state, ptr, %struct.mime_encoder_state, i64 }
%struct.mime_state = type { i32, ptr, i64 }
%struct.mime_encoder_state = type { i64, i64, i64, [256 x i8] }
%struct.ssl_config_data = type { %struct.ssl_primary_config, i64, ptr, ptr, ptr, ptr, ptr, ptr, ptr, i16 }
%struct.ssl_primary_config = type { ptr, ptr, ptr, ptr, ptr, ptr, ptr, ptr, ptr, ptr, ptr, ptr, ptr, ptr, i8, i32, i8, i8 }
%struct.ssl_general_config = type { i32 }
%struct.Progress = type { i64, %struct.pgrs_dir, %struct.pgrs_dir, i64, i64, i32, i32, i64, i64, i64, i64, i64, i64, i64, i64, i64, %struct.curltime, %struct.curltime, %struct.curltime, %struct.curltime, %struct.curltime, [6 x i64], [6 x %struct.curltime], i32, i8 }
%struct.pgrs_dir = type { i64, i64, i64, %struct.pgrs_measure }
%struct.pgrs_measure = type { %struct.curltime, i64 }
%struct.UrlState = type { %struct.curltime, i64, i64, %struct.dynbuf, ptr, i64, ptr, i32, i32, i32, ptr, i32, i64, i32, ptr, %struct.digestdata, %struct.digestdata, %struct.auth, %struct.auth, %struct.Curl_async, ptr, i8, %struct.curltime, %struct.Curl_tree, %struct.Curl_llist, [15 x %struct.time_node], ptr, ptr, i64, i64, i64, i64, [32 x i8], i64, ptr, ptr, ptr, %struct.urlpieces, ptr, ptr, ptr, ptr, ptr, i64, %struct.dynbuf, %struct.Curl_llist, [2 x %struct.curl_header], ptr, i32, ptr, ptr, %struct.store_netrc, %struct.dynamically_allocated_data, i8, i8, i8, i8, i32 }
%struct.digestdata = type { ptr, ptr, ptr, ptr, ptr, ptr, i32, i8, i8 }
%struct.auth = type { i64, i64, i64, i8 }
%struct.Curl_async = type { ptr, ptr, ptr, ptr, i32, i32, i8 }
%struct.Curl_tree = type { ptr, ptr, ptr, ptr, %struct.curltime, ptr }
%struct.time_node = type { %struct.Curl_llist_node, %struct.curltime, i32 }
%struct.urlpieces = type { ptr, ptr, ptr, ptr, ptr, ptr, ptr, ptr }
%struct.dynbuf = type { ptr, i64, i64, i64 }
%struct.Curl_llist = type { ptr, ptr, ptr, i64 }
%struct.curl_header = type { ptr, ptr, i64, i64, i32, ptr }
%struct.store_netrc = type { %struct.dynbuf, ptr, i8 }
%struct.dynamically_allocated_data = type { ptr, ptr, ptr, ptr, ptr, ptr, ptr, ptr, ptr, ptr, ptr, ptr, ptr, ptr }
%struct.PureInfo = type { i32, i32, i32, i64, i64, i64, i64, i64, i64, i64, ptr, ptr, i64, i32, %struct.ip_quadruple, i32, ptr, i32, %struct.curl_certinfo, i32, i8 }
%struct.ip_quadruple = type { [46 x i8], [46 x i8], i32, i32 }
%struct.curl_certinfo = type { i32, ptr }
%struct.curl_tlssessioninfo = type { i32, ptr }
%struct.Curl_cfilter = type { ptr, ptr, ptr, ptr, i32, i8 }
%struct.curl_trc_feat = type { ptr, i32 }

@Curl_cfree = external global ptr, align 8
@.str.5 = private unnamed_addr constant [8 x i8] c"destroy\00", align 1

; Function Attrs: nounwind uwtable
define internal void @cf_socket_destroy(ptr noundef %0, ptr noundef %1) #0 {
  %3 = alloca ptr, align 8
  %4 = alloca ptr, align 8
  %5 = alloca ptr, align 8
  store ptr %0, ptr %3, align 8, !tbaa !118
  store ptr %1, ptr %4, align 8, !tbaa !23
  call void @llvm.lifetime.start.p0(i64 8, ptr %5) #9
  %6 = load ptr, ptr %3, align 8, !tbaa !118
  %7 = getelementptr inbounds nuw %struct.Curl_cfilter, ptr %6, i32 0, i32 2
  %8 = load ptr, ptr %7, align 8, !tbaa !120
  store ptr %8, ptr %5, align 8, !tbaa !123
  %9 = load ptr, ptr %3, align 8, !tbaa !118
  %10 = load ptr, ptr %4, align 8, !tbaa !23
  call void @cf_socket_close(ptr noundef %9, ptr noundef %10)
  br label %11

11:                                               ; preds = %2
  %12 = load ptr, ptr %4, align 8, !tbaa !23
  %13 = icmp ne ptr %12, null
  br i1 %13, label %14, label %50

14:                                               ; preds = %11
  %15 = load ptr, ptr %4, align 8, !tbaa !23
  %16 = getelementptr inbounds nuw %struct.Curl_easy, ptr %15, i32 0, i32 16
  %17 = getelementptr inbounds nuw %struct.UserDefined, ptr %16, i32 0, i32 119
  %18 = load i64, ptr %17, align 2
  %19 = lshr i64 %18, 31
  %20 = and i64 %19, 1
  %21 = trunc i64 %20 to i32
  %22 = icmp ne i32 %21, 0
  br i1 %22, label %23, label %50

23:                                               ; preds = %14
  %24 = load ptr, ptr %4, align 8, !tbaa !23
  %25 = getelementptr inbounds nuw %struct.Curl_easy, ptr %24, i32 0, i32 21
  %26 = getelementptr inbounds nuw %struct.UrlState, ptr %25, i32 0, i32 50
  %27 = load ptr, ptr %26, align 8, !tbaa !125
  %28 = icmp ne ptr %27, null
  br i1 %28, label %29, label %37

29:                                               ; preds = %23
  %30 = load ptr, ptr %4, align 8, !tbaa !23
  %31 = getelementptr inbounds nuw %struct.Curl_easy, ptr %30, i32 0, i32 21
  %32 = getelementptr inbounds nuw %struct.UrlState, ptr %31, i32 0, i32 50
  %33 = load ptr, ptr %32, align 8, !tbaa !125
  %34 = getelementptr inbounds nuw %struct.curl_trc_feat, ptr %33, i32 0, i32 1
  %35 = load i32, ptr %34, align 8, !tbaa !126
  %36 = icmp sge i32 %35, 1
  br i1 %36, label %37, label %50

37:                                               ; preds = %29, %23
  %38 = load ptr, ptr %3, align 8, !tbaa !118
  %39 = icmp ne ptr %38, null
  br i1 %39, label %40, label %50

40:                                               ; preds = %37
  %41 = load ptr, ptr %3, align 8, !tbaa !118
  %42 = getelementptr inbounds nuw %struct.Curl_cfilter, ptr %41, i32 0, i32 0
  %43 = load ptr, ptr %42, align 8, !tbaa !128
  %44 = getelementptr inbounds nuw %struct.Curl_cftype, ptr %43, i32 0, i32 2
  %45 = load i32, ptr %44, align 4, !tbaa !129
  %46 = icmp sge i32 %45, 1
  br i1 %46, label %47, label %50

47:                                               ; preds = %40
  %48 = load ptr, ptr %4, align 8, !tbaa !23
  %49 = load ptr, ptr %3, align 8, !tbaa !118
  call void (ptr, ptr, ptr, ...) @Curl_trc_cf_infof(ptr noundef %48, ptr noundef %49, ptr noundef @.str.5)
  br label %50

50:                                               ; preds = %47, %40, %37, %29, %14, %11
  br label %51

51:                                               ; preds = %50
  br label %52

52:                                               ; preds = %51
  %53 = load ptr, ptr @Curl_cfree, align 8, !tbaa !117
  %54 = load ptr, ptr %5, align 8, !tbaa !123
  call void %53(ptr noundef %54)
  %55 = load ptr, ptr %3, align 8, !tbaa !118
  %56 = getelementptr inbounds nuw %struct.Curl_cfilter, ptr %55, i32 0, i32 2
  store ptr null, ptr %56, align 8, !tbaa !120
  call void @llvm.lifetime.end.p0(i64 8, ptr %5) #9
  ret void
}