; Function Attrs: nounwind uwtable
define internal void @cf_socket_destroy(ptr noundef %0, ptr noundef %1) #2 {
  %3 = getelementptr inbounds nuw i8, ptr %0, i64 16
  %4 = load ptr, ptr %3, align 8, !tbaa !104
  tail call void @cf_socket_close(ptr noundef %0, ptr noundef %1)
  %.not = icmp eq ptr %1, null
  br i1 %.not, label %22, label %5

5:                                                ; preds = %2
  %6 = getelementptr inbounds nuw i8, ptr %1, i64 2658
  %7 = load i64, ptr %6, align 2
  %8 = and i64 %7, 2147483648
  %.not15 = icmp eq i64 %8, 0
  br i1 %.not15, label %22, label %9

9:                                                ; preds = %5
  %10 = getelementptr inbounds nuw i8, ptr %1, i64 4864
  %11 = load ptr, ptr %10, align 8, !tbaa !108
  %.not16 = icmp eq ptr %11, null
  br i1 %.not16, label %16, label %12

12:                                               ; preds = %9
  %13 = getelementptr inbounds nuw i8, ptr %11, i64 8
  %14 = load i32, ptr %13, align 8, !tbaa !109
  %15 = icmp sgt i32 %14, 0
  br i1 %15, label %16, label %22

16:                                               ; preds = %9, %12
  %17 = load ptr, ptr %0, align 8, !tbaa !111
  %18 = getelementptr inbounds nuw i8, ptr %17, i64 12
  %19 = load i32, ptr %18, align 4, !tbaa !112
  %20 = icmp sgt i32 %19, 0
  br i1 %20, label %21, label %22

21:                                               ; preds = %16
  tail call void (ptr, ptr, ptr, ...) @Curl_trc_cf_infof(ptr noundef nonnull %1, ptr noundef nonnull %0, ptr noundef nonnull @.str.5) #13
  br label %22

22:                                               ; preds = %21, %16, %12, %5, %2
  %23 = load ptr, ptr @Curl_cfree, align 8, !tbaa !103
  tail call void %23(ptr noundef %4) #13
  store ptr null, ptr %3, align 8, !tbaa !104
  ret void
}